target datalayout = "e-m:e-p270:32:32-p271:32:32-p272:64:64-i64:64-i128:128-f80:128-n8:16:32:64-S128"
target triple = "x86_64-unknown-linux-gnu"

%"class.std::__cxx11::basic_string" = type { %"struct.std::__cxx11::basic_string<char>::_Alloc_hider", i64, %union.anon }
%"struct.std::__cxx11::basic_string<char>::_Alloc_hider" = type { ptr }
%union.anon = type { i64, [8 x i8] }
%"struct.Assimp::LWO::Texture" = type { %"class.std::__cxx11::basic_string", i32, float, i32, %"class.std::__cxx11::basic_string", i32, i8, i32, i8, i32, i32, float, float, i32, i32, %"class.std::__cxx11::basic_string" }
%"class.Assimp::LWOImporter" = type <{ %"class.Assimp::BaseImporter", i8, i8, i8, [5 x i8], ptr, ptr, ptr, ptr, ptr, %"class.std::vector", %"class.std::vector.6", ptr, i32, [4 x i8], ptr, i8, [3 x i8], i32, %"class.std::__cxx11::basic_string", i8, [7 x i8] }>
%"class.Assimp::BaseImporter" = type { ptr, double, double, %"class.std::__cxx11::basic_string", %"class.std::__exception_ptr::exception_ptr", ptr }
%"class.std::__exception_ptr::exception_ptr" = type { ptr }
%"class.std::vector" = type { %"struct.std::_Vector_base" }
%"struct.std::_Vector_base" = type { %"struct.std::_Vector_base<Assimp::LWO::Clip, std::allocator<Assimp::LWO::Clip>>::_Vector_impl" }
%"struct.std::_Vector_base<Assimp::LWO::Clip, std::allocator<Assimp::LWO::Clip>>::_Vector_impl" = type { %"struct.std::_Vector_base<Assimp::LWO::Clip, std::allocator<Assimp::LWO::Clip>>::_Vector_impl_data" }
%"struct.std::_Vector_base<Assimp::LWO::Clip, std::allocator<Assimp::LWO::Clip>>::_Vector_impl_data" = type { ptr, ptr, ptr }
%"class.std::vector.6" = type { %"struct.std::_Vector_base.7" }
%"struct.std::_Vector_base.7" = type { %"struct.std::_Vector_base<Assimp::LWO::Envelope, std::allocator<Assimp::LWO::Envelope>>::_Vector_impl" }
%"struct.std::_Vector_base<Assimp::LWO::Envelope, std::allocator<Assimp::LWO::Envelope>>::_Vector_impl" = type { %"struct.std::_Vector_base<Assimp::LWO::Envelope, std::allocator<Assimp::LWO::Envelope>>::_Vector_impl_data" }
%"struct.std::_Vector_base<Assimp::LWO::Envelope, std::allocator<Assimp::LWO::Envelope>>::_Vector_impl_data" = type { ptr, ptr, ptr }
%"struct.Assimp::IFF::SubChunkHeader" = type { i32, i16 }

@.str.40 = private unnamed_addr constant [38 x i8] c"LWO2: Invalid SURF.BLOCK chunk length\00", align 1
@_ZTI17DeadlyImportError = linkonce_odr constant { ptr, ptr, ptr } { ptr getelementptr inbounds (ptr, ptr @_ZTVN10__cxxabiv120__si_class_type_infoE, i64 2), ptr @_ZTS17DeadlyImportError, ptr @_ZTI15DeadlyErrorBase }, comdat, align 8

; Function Attrs: mustprogress nounwind uwtable
define linkonce_odr void @_ZSt4swapIhENSt9enable_ifIXsr6__and_ISt6__not_ISt15__is_tuple_likeIT_EESt21is_move_constructibleIS3_ESt18is_move_assignableIS3_EEE5valueEvE4typeERS3_SC_(ptr noundef nonnull align 1 dereferenceable(1) %__a, ptr noundef nonnull align 1 dereferenceable(1) %__b) #0 comdat {
entry:
  %__a.addr = alloca ptr, align 8
  %__b.addr = alloca ptr, align 8
  %__tmp = alloca i8, align 1
  store ptr %__a, ptr %__a.addr, align 8
  store ptr %__b, ptr %__b.addr, align 8
  %0 = load ptr, ptr %__a.addr, align 8
  %1 = load i8, ptr %0, align 1
  store i8 %1, ptr %__tmp, align 1
  %2 = load ptr, ptr %__b.addr, align 8
  %3 = load i8, ptr %2, align 1
  %4 = load ptr, ptr %__a.addr, align 8
  store i8 %3, ptr %4, align 1
  %5 = load i8, ptr %__tmp, align 1
  %6 = load ptr, ptr %__b.addr, align 8
  store i8 %5, ptr %6, align 1
  ret void
}

; Function Attrs: mustprogress nounwind uwtable
define linkonce_odr hidden void @_ZN6Assimp8ByteSwap5Swap4EPv(ptr noundef %_szOut) #0 comdat align 2 {
entry:
  %_szOut.addr = alloca ptr, align 8
  %szOut = alloca ptr, align 8
  store ptr %_szOut, ptr %_szOut.addr, align 8
  %0 = load ptr, ptr %_szOut.addr, align 8
  store ptr %0, ptr %szOut, align 8
  %1 = load ptr, ptr %szOut, align 8
  %arrayidx = getelementptr inbounds i8, ptr %1, i64 0
  %2 = load ptr, ptr %szOut, align 8
  %arrayidx1 = getelementptr inbounds i8, ptr %2, i64 3
  call void @_ZSt4swapIhENSt9enable_ifIXsr6__and_ISt6__not_ISt15__is_tuple_likeIT_EESt21is_move_constructibleIS3_ESt18is_move_assignableIS3_EEE5valueEvE4typeERS3_SC_(ptr noundef nonnull align 1 dereferenceable(1) %arrayidx, ptr noundef nonnull align 1 dereferenceable(1) %arrayidx1) #14
  %3 = load ptr, ptr %szOut, align 8
  %arrayidx2 = getelementptr inbounds i8, ptr %3, i64 1
  %4 = load ptr, ptr %szOut, align 8
  %arrayidx3 = getelementptr inbounds i8, ptr %4, i64 2
  call void @_ZSt4swapIhENSt9enable_ifIXsr6__and_ISt6__not_ISt15__is_tuple_likeIT_EESt21is_move_constructibleIS3_ESt18is_move_assignableIS3_EEE5valueEvE4typeERS3_SC_(ptr noundef nonnull align 1 dereferenceable(1) %arrayidx2, ptr noundef nonnull align 1 dereferenceable(1) %arrayidx3) #14
  ret void
}

; Function Attrs: mustprogress nounwind uwtable
define linkonce_odr hidden void @_ZN6Assimp8ByteSwap5Swap2EPv(ptr noundef %_szOut) #0 comdat align 2 {
entry:
  %_szOut.addr = alloca ptr, align 8
  %szOut = alloca ptr, align 8
  store ptr %_szOut, ptr %_szOut.addr, align 8
  %0 = load ptr, ptr %_szOut.addr, align 8
  store ptr %0, ptr %szOut, align 8
  %1 = load ptr, ptr %szOut, align 8
  %arrayidx = getelementptr inbounds i8, ptr %1, i64 0
  %2 = load ptr, ptr %szOut, align 8
  %arrayidx1 = getelementptr inbounds i8, ptr %2, i64 1
  call void @_ZSt4swapIhENSt9enable_ifIXsr6__and_ISt6__not_ISt15__is_tuple_likeIT_EESt21is_move_constructibleIS3_ESt18is_move_assignableIS3_EEE5valueEvE4typeERS3_SC_(ptr noundef nonnull align 1 dereferenceable(1) %arrayidx, ptr noundef nonnull align 1 dereferenceable(1) %arrayidx1) #14
  ret void
}

; Function Attrs: mustprogress nounwind uwtable
define linkonce_odr hidden noundef float @_ZN6Assimp11LWOImporter5GetF4Ev(ptr noundef nonnull align 8 dereferenceable(233) %this) #0 comdat align 2 {
entry:
  %this.addr = alloca ptr, align 8
  %f = alloca float, align 4
  store ptr %this, ptr %this.addr, align 8
  %this1 = load ptr, ptr %this.addr, align 8
  %mFileBuffer = getelementptr inbounds %"class.Assimp::LWOImporter", ptr %this1, i32 0, i32 12
  %0 = load ptr, ptr %mFileBuffer, align 8
  call void @llvm.memcpy.p0.p0.i64(ptr align 4 %f, ptr align 1 %0, i64 4, i1 false)
  %mFileBuffer2 = getelementptr inbounds %"class.Assimp::LWOImporter", ptr %this1, i32 0, i32 12
  %1 = load ptr, ptr %mFileBuffer2, align 8
  %add.ptr = getelementptr inbounds i8, ptr %1, i64 4
  store ptr %add.ptr, ptr %mFileBuffer2, align 8
  call void @_ZN6Assimp8ByteSwap5Swap4EPv(ptr noundef %f)
  %2 = load float, ptr %f, align 4
  ret float %2
}

; Function Attrs: mustprogress nounwind uwtable
define linkonce_odr hidden noundef zeroext i16 @_ZN6Assimp11LWOImporter5GetU2Ev(ptr noundef nonnull align 8 dereferenceable(233) %this) #0 comdat align 2 {
entry:
  %this.addr = alloca ptr, align 8
  %f = alloca i16, align 2
  store ptr %this, ptr %this.addr, align 8
  %this1 = load ptr, ptr %this.addr, align 8
  %mFileBuffer = getelementptr inbounds %"class.Assimp::LWOImporter", ptr %this1, i32 0, i32 12
  %0 = load ptr, ptr %mFileBuffer, align 8
  call void @llvm.memcpy.p0.p0.i64(ptr align 2 %f, ptr align 1 %0, i64 2, i1 false)
  %mFileBuffer2 = getelementptr inbounds %"class.Assimp::LWOImporter", ptr %this1, i32 0, i32 12
  %1 = load ptr, ptr %mFileBuffer2, align 8
  %add.ptr = getelementptr inbounds i8, ptr %1, i64 2
  store ptr %add.ptr, ptr %mFileBuffer2, align 8
  call void @_ZN6Assimp8ByteSwap5Swap2EPv(ptr noundef %f)
  %2 = load i16, ptr %f, align 2
  ret i16 %2
}

; Function Attrs: mustprogress uwtable
define linkonce_odr hidden i64 @_ZN6Assimp3IFF12LoadSubChunkERPh(ptr noundef nonnull align 8 dereferenceable(8) %outFile) #2 comdat {
entry:
  %retval = alloca %"struct.Assimp::IFF::SubChunkHeader", align 4
  %outFile.addr = alloca ptr, align 8
  store ptr %outFile, ptr %outFile.addr, align 8
  %type = getelementptr inbounds %"struct.Assimp::IFF::SubChunkHeader", ptr %retval, i32 0, i32 0
  %0 = load ptr, ptr %outFile.addr, align 8
  %1 = load ptr, ptr %0, align 8
  call void @llvm.memcpy.p0.p0.i64(ptr align 4 %type, ptr align 1 %1, i64 4, i1 false)
  %2 = load ptr, ptr %outFile.addr, align 8
  %3 = load ptr, ptr %2, align 8
  %add.ptr = getelementptr inbounds i8, ptr %3, i64 4
  store ptr %add.ptr, ptr %2, align 8
  %length = getelementptr inbounds %"struct.Assimp::IFF::SubChunkHeader", ptr %retval, i32 0, i32 1
  %4 = load ptr, ptr %outFile.addr, align 8
  %5 = load ptr, ptr %4, align 8
  call void @llvm.memcpy.p0.p0.i64(ptr align 4 %length, ptr align 1 %5, i64 2, i1 false)
  %6 = load ptr, ptr %outFile.addr, align 8
  %7 = load ptr, ptr %6, align 8
  %add.ptr1 = getelementptr inbounds i8, ptr %7, i64 2
  store ptr %add.ptr1, ptr %6, align 8
  %length2 = getelementptr inbounds %"struct.Assimp::IFF::SubChunkHeader", ptr %retval, i32 0, i32 1
  call void @_ZN6Assimp8ByteSwap5Swap2EPv(ptr noundef %length2)
  %type3 = getelementptr inbounds %"struct.Assimp::IFF::SubChunkHeader", ptr %retval, i32 0, i32 0
  call void @_ZN6Assimp8ByteSwap5Swap4EPv(ptr noundef %type3)
  %8 = load i64, ptr %retval, align 4
  ret i64 %8
}

; Function Attrs: mustprogress uwtable
define hidden void @_ZN6Assimp11LWOImporter16LoadLWO2ImageMapEjRNS_3LWO7TextureE(ptr noundef nonnull align 8 dereferenceable(233) %this, i32 noundef %size, ptr noundef nonnull align 8 dereferenceable(152) %tex) #2 align 2 personality ptr @__gxx_personality_v0 {
entry:
  %this.addr = alloca ptr, align 8
  %size.addr = alloca i32, align 4
  %tex.addr = alloca ptr, align 8
  %end = alloca ptr, align 8
  %head = alloca %"struct.Assimp::IFF::SubChunkHeader", align 4
  %exn.slot = alloca ptr, align 8
  %ehselector.slot = alloca i32, align 4
  %next = alloca ptr, align 8
  store ptr %this, ptr %this.addr, align 8
  store i32 %size, ptr %size.addr, align 4
  store ptr %tex, ptr %tex.addr, align 8
  %this1 = load ptr, ptr %this.addr, align 8
  %mFileBuffer = getelementptr inbounds %"class.Assimp::LWOImporter", ptr %this1, i32 0, i32 12
  %0 = load ptr, ptr %mFileBuffer, align 8
  %1 = load i32, ptr %size.addr, align 4
  %idx.ext = zext i32 %1 to i64
  %add.ptr = getelementptr inbounds i8, ptr %0, i64 %idx.ext
  store ptr %add.ptr, ptr %end, align 8
  br label %while.body

while.body:                                       ; preds = %sw.epilog, %entry
  %mFileBuffer2 = getelementptr inbounds %"class.Assimp::LWOImporter", ptr %this1, i32 0, i32 12
  %2 = load ptr, ptr %mFileBuffer2, align 8
  %add.ptr3 = getelementptr inbounds i8, ptr %2, i64 6
  %3 = load ptr, ptr %end, align 8
  %cmp = icmp uge ptr %add.ptr3, %3
  br i1 %cmp, label %if.then, label %if.end

if.then:                                          ; preds = %while.body
  br label %while.end

if.end:                                           ; preds = %while.body
  %mFileBuffer4 = getelementptr inbounds %"class.Assimp::LWOImporter", ptr %this1, i32 0, i32 12
  %call = call i64 @_ZN6Assimp3IFF12LoadSubChunkERPh(ptr noundef nonnull align 8 dereferenceable(8) %mFileBuffer4)
  store i64 %call, ptr %head, align 4
  %mFileBuffer5 = getelementptr inbounds %"class.Assimp::LWOImporter", ptr %this1, i32 0, i32 12
  %4 = load ptr, ptr %mFileBuffer5, align 8
  %length = getelementptr inbounds %"struct.Assimp::IFF::SubChunkHeader", ptr %head, i32 0, i32 1
  %5 = load i16, ptr %length, align 4
  %conv = zext i16 %5 to i32
  %idx.ext6 = sext i32 %conv to i64
  %add.ptr7 = getelementptr inbounds i8, ptr %4, i64 %idx.ext6
  %6 = load ptr, ptr %end, align 8
  %cmp8 = icmp ugt ptr %add.ptr7, %6
  br i1 %cmp8, label %if.then9, label %if.end10

if.then9:                                         ; preds = %if.end
  %exception = call ptr @__cxa_allocate_exception(i64 16) #14
  invoke void @_ZN17DeadlyImportErrorC2EPKc(ptr noundef nonnull align 8 dereferenceable(16) %exception, ptr noundef @.str.40)
          to label %invoke.cont unwind label %lpad

invoke.cont:                                      ; preds = %if.then9
  call void @__cxa_throw(ptr %exception, ptr @_ZTI17DeadlyImportError, ptr @_ZN17DeadlyImportErrorD2Ev) #16
  unreachable

lpad:                                             ; preds = %if.then9
  %7 = landingpad { ptr, i32 }
          cleanup
  %8 = extractvalue { ptr, i32 } %7, 0
  store ptr %8, ptr %exn.slot, align 8
  %9 = extractvalue { ptr, i32 } %7, 1
  store i32 %9, ptr %ehselector.slot, align 4
  call void @__cxa_free_exception(ptr %exception) #14
  br label %eh.resume

if.end10:                                         ; preds = %if.end
  %mFileBuffer11 = getelementptr inbounds %"class.Assimp::LWOImporter", ptr %this1, i32 0, i32 12
  %10 = load ptr, ptr %mFileBuffer11, align 8
  %length12 = getelementptr inbounds %"struct.Assimp::IFF::SubChunkHeader", ptr %head, i32 0, i32 1
  %11 = load i16, ptr %length12, align 4
  %conv13 = zext i16 %11 to i32
  %idx.ext14 = sext i32 %conv13 to i64
  %add.ptr15 = getelementptr inbounds i8, ptr %10, i64 %idx.ext14
  store ptr %add.ptr15, ptr %next, align 8
  %type = getelementptr inbounds %"struct.Assimp::IFF::SubChunkHeader", ptr %head, i32 0, i32 0
  %12 = load i32, ptr %type, align 4
  switch i32 %12, label %sw.epilog [
    i32 1347571530, label %sw.bb
    i32 1465008464, label %sw.bb18
    i32 1096304979, label %sw.bb23
    i32 1229799751, label %sw.bb26
    i32 1447903568, label %sw.bb29
    i32 1465012296, label %sw.bb32
    i32 1465012311, label %sw.bb34
  ]

sw.bb:                                            ; preds = %if.end10
  %call16 = call noundef zeroext i16 @_ZN6Assimp11LWOImporter5GetU2Ev(ptr noundef nonnull align 8 dereferenceable(233) %this1)
  %conv17 = zext i16 %call16 to i32
  %13 = load ptr, ptr %tex.addr, align 8
  %mapMode = getelementptr inbounds %"struct.Assimp::LWO::Texture", ptr %13, i32 0, i32 9
  store i32 %conv17, ptr %mapMode, align 8
  br label %sw.epilog

sw.bb18:                                          ; preds = %if.end10
  %call19 = call noundef zeroext i16 @_ZN6Assimp11LWOImporter5GetU2Ev(ptr noundef nonnull align 8 dereferenceable(233) %this1)
  %conv20 = zext i16 %call19 to i32
  %14 = load ptr, ptr %tex.addr, align 8
  %wrapModeWidth = getelementptr inbounds %"struct.Assimp::LWO::Texture", ptr %14, i32 0, i32 13
  store i32 %conv20, ptr %wrapModeWidth, align 8
  %call21 = call noundef zeroext i16 @_ZN6Assimp11LWOImporter5GetU2Ev(ptr noundef nonnull align 8 dereferenceable(233) %this1)
  %conv22 = zext i16 %call21 to i32
  %15 = load ptr, ptr %tex.addr, align 8
  %wrapModeHeight = getelementptr inbounds %"struct.Assimp::LWO::Texture", ptr %15, i32 0, i32 14
  store i32 %conv22, ptr %wrapModeHeight, align 4
  br label %sw.epilog

sw.bb23:                                          ; preds = %if.end10
  %call24 = call noundef zeroext i16 @_ZN6Assimp11LWOImporter5GetU2Ev(ptr noundef nonnull align 8 dereferenceable(233) %this1)
  %conv25 = zext i16 %call24 to i32
  %16 = load ptr, ptr %tex.addr, align 8
  %majorAxis = getelementptr inbounds %"struct.Assimp::LWO::Texture", ptr %16, i32 0, i32 10
  store i32 %conv25, ptr %majorAxis, align 4
  br label %sw.epilog

sw.bb26:                                          ; preds = %if.end10
  %call27 = call noundef zeroext i16 @_ZN6Assimp11LWOImporter5GetU2Ev(ptr noundef nonnull align 8 dereferenceable(233) %this1)
  %conv28 = zext i16 %call27 to i32
  %17 = load ptr, ptr %tex.addr, align 8
  %mClipIdx = getelementptr inbounds %"struct.Assimp::LWO::Texture", ptr %17, i32 0, i32 1
  store i32 %conv28, ptr %mClipIdx, align 8
  br label %sw.epilog

sw.bb29:                                          ; preds = %if.end10
  %18 = load ptr, ptr %tex.addr, align 8
  %mUVChannelIndex = getelementptr inbounds %"struct.Assimp::LWO::Texture", ptr %18, i32 0, i32 4
  %length30 = getelementptr inbounds %"struct.Assimp::IFF::SubChunkHeader", ptr %head, i32 0, i32 1
  %19 = load i16, ptr %length30, align 4
  %conv31 = zext i16 %19 to i32
  call void @_ZN6Assimp11LWOImporter5GetS0ERNSt7__cxx1112basic_stringIcSt11char_traitsIcESaIcEEEj(ptr noundef nonnull align 8 dereferenceable(233) %this1, ptr noundef nonnull align 8 dereferenceable(32) %mUVChannelIndex, i32 noundef %conv31)
  br label %sw.epilog

sw.bb32:                                          ; preds = %if.end10
  %call33 = call noundef float @_ZN6Assimp11LWOImporter5GetF4Ev(ptr noundef nonnull align 8 dereferenceable(233) %this1)
  %20 = load ptr, ptr %tex.addr, align 8
  %wrapAmountH = getelementptr inbounds %"struct.Assimp::LWO::Texture", ptr %20, i32 0, i32 11
  store float %call33, ptr %wrapAmountH, align 8
  br label %sw.epilog

sw.bb34:                                          ; preds = %if.end10
  %call35 = call noundef float @_ZN6Assimp11LWOImporter5GetF4Ev(ptr noundef nonnull align 8 dereferenceable(233) %this1)
  %21 = load ptr, ptr %tex.addr, align 8
  %wrapAmountW = getelementptr inbounds %"struct.Assimp::LWO::Texture", ptr %21, i32 0, i32 12
  store float %call35, ptr %wrapAmountW, align 4
  br label %sw.epilog

sw.epilog:                                        ; preds = %sw.bb34, %sw.bb32, %sw.bb29, %sw.bb26, %sw.bb23, %sw.bb18, %sw.bb, %if.end10
  %22 = load ptr, ptr %next, align 8
  %mFileBuffer36 = getelementptr inbounds %"class.Assimp::LWOImporter", ptr %this1, i32 0, i32 12
  store ptr %22, ptr %mFileBuffer36, align 8
  br label %while.body, !llvm.loop !14

while.end:                                        ; preds = %if.then
  ret void

eh.resume:                                        ; preds = %lpad
  %exn = load ptr, ptr %exn.slot, align 8
  %sel = load i32, ptr %ehselector.slot, align 4
  %lpad.val = insertvalue { ptr, i32 } poison, ptr %exn, 0
  %lpad.val37 = insertvalue { ptr, i32 } %lpad.val, i32 %sel, 1
  resume { ptr, i32 } %lpad.val37
}