; Function Attrs: mustprogress uwtable
define hidden void @_ZN6Assimp11LWOImporter16LoadLWO2ImageMapEjRNS_3LWO7TextureE(ptr noundef nonnull align 8 dereferenceable(233) %this, i32 noundef %size, ptr noundef nonnull align 8 dereferenceable(152) %tex) local_unnamed_addr #0 align 2 personality ptr @__gxx_personality_v0 {
entry:
  %mFileBuffer = getelementptr inbounds i8, ptr %this, i64 168
  %0 = load ptr, ptr %mFileBuffer, align 8
  %idx.ext = zext i32 %size to i64
  %add.ptr = getelementptr inbounds i8, ptr %0, i64 %idx.ext
  %cmp.not30 = icmp ugt i32 %size, 6
  br i1 %cmp.not30, label %if.end.lr.ph, label %while.end

if.end.lr.ph:                                     ; preds = %entry
  %add.ptr329 = getelementptr inbounds i8, ptr %0, i64 6
  %wrapAmountW = getelementptr inbounds i8, ptr %tex, i64 108
  %wrapAmountH = getelementptr inbounds i8, ptr %tex, i64 104
  %mUVChannelIndex = getelementptr inbounds i8, ptr %tex, i64 48
  %mClipIdx = getelementptr inbounds i8, ptr %tex, i64 32
  %majorAxis = getelementptr inbounds i8, ptr %tex, i64 100
  %wrapModeWidth = getelementptr inbounds i8, ptr %tex, i64 112
  %wrapModeHeight = getelementptr inbounds i8, ptr %tex, i64 116
  %mapMode = getelementptr inbounds i8, ptr %tex, i64 96
  br label %if.end

if.end:                                           ; preds = %if.end.lr.ph, %sw.epilog
  %add.ptr331 = phi ptr [ %add.ptr329, %if.end.lr.ph ], [ %add.ptr3, %sw.epilog ]
  %1 = phi ptr [ %0, %if.end.lr.ph ], [ %add.ptr7, %sw.epilog ]
  %2 = load i32, ptr %1, align 1
  %add.ptr.i = getelementptr inbounds i8, ptr %1, i64 4
  store ptr %add.ptr.i, ptr %mFileBuffer, align 8
  %3 = load i16, ptr %add.ptr.i, align 1
  store ptr %add.ptr331, ptr %mFileBuffer, align 8
  %retval.sroa.10.sroa.0.0.insert.insert.i = tail call i16 @llvm.bswap.i16(i16 %3)
  %retval.sroa.10.0.insert.ext.i = zext i16 %retval.sroa.10.sroa.0.0.insert.insert.i to i64
  %head.sroa.2.0.extract.trunc = zext i16 %retval.sroa.10.sroa.0.0.insert.insert.i to i32
  %add.ptr7 = getelementptr inbounds i8, ptr %add.ptr331, i64 %retval.sroa.10.0.insert.ext.i
  %cmp8 = icmp ugt ptr %add.ptr7, %add.ptr
  br i1 %cmp8, label %if.then9, label %if.end10

if.then9:                                         ; preds = %if.end
  %exception = tail call ptr @__cxa_allocate_exception(i64 16) #15
  invoke void @_ZN17DeadlyImportErrorC2EPKc(ptr noundef nonnull align 8 dereferenceable(16) %exception, ptr noundef nonnull @.str.40)
          to label %invoke.cont unwind label %lpad

invoke.cont:                                      ; preds = %if.then9
  tail call void @__cxa_throw(ptr nonnull %exception, ptr nonnull @_ZTI17DeadlyImportError, ptr nonnull @_ZN17DeadlyImportErrorD2Ev) #16
  unreachable

lpad:                                             ; preds = %if.then9
  %4 = landingpad { ptr, i32 }
          cleanup
  tail call void @__cxa_free_exception(ptr %exception) #15
  resume { ptr, i32 } %4

if.end10:                                         ; preds = %if.end
  %retval.sroa.0.sroa.0.0.insert.insert.i = tail call i32 @llvm.bswap.i32(i32 %2)
  switch i32 %retval.sroa.0.sroa.0.0.insert.insert.i, label %sw.epilog [
    i32 1347571530, label %sw.bb
    i32 1465008464, label %sw.bb18
    i32 1096304979, label %sw.bb23
    i32 1229799751, label %sw.bb26
    i32 1447903568, label %sw.bb29
    i32 1465012296, label %sw.bb32
    i32 1465012311, label %sw.bb34
  ]

sw.bb:                                            ; preds = %if.end10
  %5 = load i16, ptr %add.ptr331, align 1
  %add.ptr.i11 = getelementptr inbounds i8, ptr %1, i64 8
  store ptr %add.ptr.i11, ptr %mFileBuffer, align 8
  %f.sroa.0.0.insert.insert.i = tail call noundef i16 @llvm.bswap.i16(i16 %5)
  %conv17 = zext i16 %f.sroa.0.0.insert.insert.i to i32
  store i32 %conv17, ptr %mapMode, align 8
  br label %sw.epilog

sw.bb18:                                          ; preds = %if.end10
  %6 = load i16, ptr %add.ptr331, align 1
  %add.ptr.i13 = getelementptr inbounds i8, ptr %1, i64 8
  store ptr %add.ptr.i13, ptr %mFileBuffer, align 8
  %f.sroa.0.0.insert.insert.i14 = tail call noundef i16 @llvm.bswap.i16(i16 %6)
  %conv20 = zext i16 %f.sroa.0.0.insert.insert.i14 to i32
  store i32 %conv20, ptr %wrapModeWidth, align 8
  %7 = load ptr, ptr %mFileBuffer, align 8
  %8 = load i16, ptr %7, align 1
  %add.ptr.i16 = getelementptr inbounds i8, ptr %7, i64 2
  store ptr %add.ptr.i16, ptr %mFileBuffer, align 8
  %f.sroa.0.0.insert.insert.i17 = tail call noundef i16 @llvm.bswap.i16(i16 %8)
  %conv22 = zext i16 %f.sroa.0.0.insert.insert.i17 to i32
  store i32 %conv22, ptr %wrapModeHeight, align 4
  br label %sw.epilog

sw.bb23:                                          ; preds = %if.end10
  %9 = load i16, ptr %add.ptr331, align 1
  %add.ptr.i19 = getelementptr inbounds i8, ptr %1, i64 8
  store ptr %add.ptr.i19, ptr %mFileBuffer, align 8
  %f.sroa.0.0.insert.insert.i20 = tail call noundef i16 @llvm.bswap.i16(i16 %9)
  %conv25 = zext i16 %f.sroa.0.0.insert.insert.i20 to i32
  store i32 %conv25, ptr %majorAxis, align 4
  br label %sw.epilog

sw.bb26:                                          ; preds = %if.end10
  %10 = load i16, ptr %add.ptr331, align 1
  %add.ptr.i22 = getelementptr inbounds i8, ptr %1, i64 8
  store ptr %add.ptr.i22, ptr %mFileBuffer, align 8
  %f.sroa.0.0.insert.insert.i23 = tail call noundef i16 @llvm.bswap.i16(i16 %10)
  %conv28 = zext i16 %f.sroa.0.0.insert.insert.i23 to i32
  store i32 %conv28, ptr %mClipIdx, align 8
  br label %sw.epilog

sw.bb29:                                          ; preds = %if.end10
  tail call void @_ZN6Assimp11LWOImporter5GetS0ERNSt7__cxx1112basic_stringIcSt11char_traitsIcESaIcEEEj(ptr noundef nonnull align 8 dereferenceable(233) %this, ptr noundef nonnull align 8 dereferenceable(32) %mUVChannelIndex, i32 noundef %head.sroa.2.0.extract.trunc)
  br label %sw.epilog

sw.bb32:                                          ; preds = %if.end10
  %11 = load i32, ptr %add.ptr331, align 1
  %add.ptr.i25 = getelementptr inbounds i8, ptr %1, i64 10
  store ptr %add.ptr.i25, ptr %mFileBuffer, align 8
  %f.2.insert.insert.i = tail call i32 @llvm.bswap.i32(i32 %11)
  store i32 %f.2.insert.insert.i, ptr %wrapAmountH, align 8
  br label %sw.epilog

sw.bb34:                                          ; preds = %if.end10
  %12 = load i32, ptr %add.ptr331, align 1
  %add.ptr.i27 = getelementptr inbounds i8, ptr %1, i64 10
  store ptr %add.ptr.i27, ptr %mFileBuffer, align 8
  %f.2.insert.insert.i28 = tail call i32 @llvm.bswap.i32(i32 %12)
  store i32 %f.2.insert.insert.i28, ptr %wrapAmountW, align 4
  br label %sw.epilog

sw.epilog:                                        ; preds = %sw.bb34, %sw.bb32, %sw.bb29, %sw.bb26, %sw.bb23, %sw.bb18, %sw.bb, %if.end10
  store ptr %add.ptr7, ptr %mFileBuffer, align 8
  %add.ptr3 = getelementptr inbounds i8, ptr %add.ptr7, i64 6
  %cmp.not = icmp ult ptr %add.ptr3, %add.ptr
  br i1 %cmp.not, label %if.end, label %while.end, !llvm.loop !30

while.end:                                        ; preds = %sw.epilog, %entry
  ret void
}